target datalayout = "e-m:e-p270:32:32-p271:32:32-p272:64:64-i64:64-i128:128-f80:128-n8:16:32:64-S128"
target triple = "x86_64-pc-linux-gnu"

%"class.std::__cxx11::basic_string" = type { %"struct.std::__cxx11::basic_string<char>::_Alloc_hider", i64, %union.anon }
%"struct.std::__cxx11::basic_string<char>::_Alloc_hider" = type { ptr }
%union.anon = type { i64, [8 x i8] }
%"class.std::optional.2" = type { %"struct.std::_Optional_base.3" }
%"struct.std::_Optional_base.3" = type { %"struct.std::_Optional_payload.5" }
%"struct.std::_Optional_payload.5" = type { %"struct.std::_Optional_payload.base.9", [7 x i8] }
%"struct.std::_Optional_payload.base.9" = type { %"struct.std::_Optional_payload_base.base.8" }
%"struct.std::_Optional_payload_base.base.8" = type <{ %"union.std::_Optional_payload_base<std::__cxx11::basic_string<char>>::_Storage", i8 }>
%"union.std::_Optional_payload_base<std::__cxx11::basic_string<char>>::_Storage" = type { %"class.std::__cxx11::basic_string" }
%"struct.Luau::Type" = type { %"class.Luau::Variant.113", i8, [7 x i8], %"class.std::optional.2", ptr }
%"class.Luau::Variant.113" = type { i32, [4 x i8], [336 x i8] }

; Function Attrs: mustprogress uwtable
define linkonce_odr dso_local noundef nonnull align 8 dereferenceable(344) ptr @_ZN4Luau7VariantIJNS_9Unifiable5BoundIPKNS_4TypeEEENS1_5ErrorIS5_EENS_8FreeTypeENS_11GenericTypeENS_13PrimitiveTypeENS_13SingletonTypeENS_11BlockedTypeENS_20PendingExpansionTypeENS_12FunctionTypeENS_9TableTypeENS_13MetatableTypeENS_9ClassTypeENS_7AnyTypeENS_9UnionTypeENS_16IntersectionTypeENS_8LazyTypeENS_11UnknownTypeENS_9NeverTypeENS_12NegationTypeENS_12NoRefineTypeENS_24TypeFunctionInstanceTypeEEEaSEOSS_(ptr noundef nonnull align 8 dereferenceable(344) %0, ptr noundef nonnull align 8 dereferenceable(344) %1) #3 comdat align 2 {
  %3 = alloca ptr, align 8
  %4 = alloca ptr, align 8
  store ptr %0, ptr %3, align 8, !tbaa !337
  store ptr %1, ptr %4, align 8, !tbaa !337
  %5 = load ptr, ptr %3, align 8
  %6 = load ptr, ptr %4, align 8, !tbaa !337
  %7 = icmp ne ptr %5, %6
  br i1 %7, label %8, label %27

8:                                                ; preds = %2
  %9 = getelementptr inbounds nuw %"class.Luau::Variant.113", ptr %5, i32 0, i32 0
  %10 = load i32, ptr %9, align 8, !tbaa !339
  %11 = sext i32 %10 to i64
  %12 = getelementptr inbounds [21 x ptr], ptr @_ZN4Luau7VariantIJNS_9Unifiable5BoundIPKNS_4TypeEEENS1_5ErrorIS5_EENS_8FreeTypeENS_11GenericTypeENS_13PrimitiveTypeENS_13SingletonTypeENS_11BlockedTypeENS_20PendingExpansionTypeENS_12FunctionTypeENS_9TableTypeENS_13MetatableTypeENS_9ClassTypeENS_7AnyTypeENS_9UnionTypeENS_16IntersectionTypeENS_8LazyTypeENS_11UnknownTypeENS_9NeverTypeENS_12NegationTypeENS_12NoRefineTypeENS_24TypeFunctionInstanceTypeEEE9tableDtorE, i64 0, i64 %11
  %13 = load ptr, ptr %12, align 8, !tbaa !33
  %14 = getelementptr inbounds nuw %"class.Luau::Variant.113", ptr %5, i32 0, i32 2
  call void %13(ptr noundef %14)
  %15 = load ptr, ptr %4, align 8, !tbaa !337
  %16 = getelementptr inbounds nuw %"class.Luau::Variant.113", ptr %15, i32 0, i32 0
  %17 = load i32, ptr %16, align 8, !tbaa !339
  %18 = getelementptr inbounds nuw %"class.Luau::Variant.113", ptr %5, i32 0, i32 0
  store i32 %17, ptr %18, align 8, !tbaa !339
  %19 = getelementptr inbounds nuw %"class.Luau::Variant.113", ptr %5, i32 0, i32 0
  %20 = load i32, ptr %19, align 8, !tbaa !339
  %21 = sext i32 %20 to i64
  %22 = getelementptr inbounds [21 x ptr], ptr @_ZN4Luau7VariantIJNS_9Unifiable5BoundIPKNS_4TypeEEENS1_5ErrorIS5_EENS_8FreeTypeENS_11GenericTypeENS_13PrimitiveTypeENS_13SingletonTypeENS_11BlockedTypeENS_20PendingExpansionTypeENS_12FunctionTypeENS_9TableTypeENS_13MetatableTypeENS_9ClassTypeENS_7AnyTypeENS_9UnionTypeENS_16IntersectionTypeENS_8LazyTypeENS_11UnknownTypeENS_9NeverTypeENS_12NegationTypeENS_12NoRefineTypeENS_24TypeFunctionInstanceTypeEEE9tableMoveE, i64 0, i64 %21
  %23 = load ptr, ptr %22, align 8, !tbaa !33
  %24 = getelementptr inbounds nuw %"class.Luau::Variant.113", ptr %5, i32 0, i32 2
  %25 = load ptr, ptr %4, align 8, !tbaa !337
  %26 = getelementptr inbounds nuw %"class.Luau::Variant.113", ptr %25, i32 0, i32 2
  call void %23(ptr noundef %24, ptr noundef %26)
  br label %27

27:                                               ; preds = %8, %2
  ret ptr %5
}

; Function Attrs: mustprogress uwtable
define dso_local noundef nonnull align 8 dereferenceable(400) ptr @_ZN4Luau4TypeaSEONS_7VariantIJNS_9Unifiable5BoundIPKS0_EENS2_5ErrorIS5_EENS_8FreeTypeENS_11GenericTypeENS_13PrimitiveTypeENS_13SingletonTypeENS_11BlockedTypeENS_20PendingExpansionTypeENS_12FunctionTypeENS_9TableTypeENS_13MetatableTypeENS_9ClassTypeENS_7AnyTypeENS_9UnionTypeENS_16IntersectionTypeENS_8LazyTypeENS_11UnknownTypeENS_9NeverTypeENS_12NegationTypeENS_12NoRefineTypeENS_24TypeFunctionInstanceTypeEEEE(ptr noundef nonnull align 8 dereferenceable(400) %0, ptr noundef nonnull align 8 dereferenceable(344) %1) #3 align 2 {
  %3 = alloca ptr, align 8
  %4 = alloca ptr, align 8
  store ptr %0, ptr %3, align 8, !tbaa !29
  store ptr %1, ptr %4, align 8, !tbaa !337
  %5 = load ptr, ptr %3, align 8
  %6 = load ptr, ptr %4, align 8, !tbaa !337
  %7 = getelementptr inbounds nuw %"struct.Luau::Type", ptr %5, i32 0, i32 0
  %8 = call noundef nonnull align 8 dereferenceable(344) ptr @_ZN4Luau7VariantIJNS_9Unifiable5BoundIPKNS_4TypeEEENS1_5ErrorIS5_EENS_8FreeTypeENS_11GenericTypeENS_13PrimitiveTypeENS_13SingletonTypeENS_11BlockedTypeENS_20PendingExpansionTypeENS_12FunctionTypeENS_9TableTypeENS_13MetatableTypeENS_9ClassTypeENS_7AnyTypeENS_9UnionTypeENS_16IntersectionTypeENS_8LazyTypeENS_11UnknownTypeENS_9NeverTypeENS_12NegationTypeENS_12NoRefineTypeENS_24TypeFunctionInstanceTypeEEEaSEOSS_(ptr noundef nonnull align 8 dereferenceable(344) %7, ptr noundef nonnull align 8 dereferenceable(344) %6)
  ret ptr %5
}